; Function Attrs: nofree norecurse nosync nounwind memory(argmem: read) uwtable
define internal i32 @pg_big5_verifystr(ptr noundef %0, i32 noundef %1) #5 {
  %3 = icmp sgt i32 %1, 0
  br i1 %3, label %.lr.ph, label %.thread

.lr.ph:                                           ; preds = %2, %.loopexit
  %.01427 = phi ptr [ %21, %.loopexit ], [ %0, %2 ]
  %.01526 = phi i32 [ %22, %.loopexit ], [ %1, %2 ]
  %4 = load i8, ptr %.01427, align 1
  %.not = icmp sgt i8 %4, -1
  br i1 %.not, label %5, label %7

5:                                                ; preds = %.lr.ph
  %6 = icmp eq i8 %4, 0
  br i1 %6, label %.thread, label %.loopexit

7:                                                ; preds = %.lr.ph
  %8 = icmp eq i32 %.01526, 1
  br i1 %8, label %.thread, label %9

9:                                                ; preds = %7
  %10 = icmp eq i8 %4, -115
  br i1 %10, label %11, label %.preheader

11:                                               ; preds = %9
  %12 = getelementptr inbounds nuw i8, ptr %.01427, i64 1
  %13 = load i8, ptr %12, align 1
  %14 = icmp eq i8 %13, 32
  br i1 %14, label %.thread, label %.preheader

.preheader:                                       ; preds = %11, %9
  br label %15

15:                                               ; preds = %.preheader, %16
  %.010.i = phi ptr [ %17, %16 ], [ %.01427, %.preheader ]
  %.09.i = phi i1 [ false, %16 ], [ true, %.preheader ]
  br i1 %.09.i, label %16, label %.loopexit

16:                                               ; preds = %15
  %17 = getelementptr inbounds nuw i8, ptr %.010.i, i64 1
  %18 = load i8, ptr %17, align 1
  %19 = icmp eq i8 %18, 0
  br i1 %19, label %.thread, label %15, !llvm.loop !22

.loopexit:                                        ; preds = %15, %5
  %.013 = phi i32 [ 1, %5 ], [ 2, %15 ]
  %20 = zext nneg i32 %.013 to i64
  %21 = getelementptr inbounds nuw i8, ptr %.01427, i64 %20
  %22 = sub nsw i32 %.01526, %.013
  %23 = icmp sgt i32 %22, 0
  br i1 %23, label %.lr.ph, label %.thread

.thread:                                          ; preds = %.loopexit, %5, %7, %11, %16, %2
  %.01425 = phi ptr [ %0, %2 ], [ %.01427, %16 ], [ %21, %.loopexit ], [ %.01427, %5 ], [ %.01427, %7 ], [ %.01427, %11 ]
  %24 = ptrtoint ptr %.01425 to i64
  %25 = ptrtoint ptr %0 to i64
  %26 = sub i64 %24, %25
  %27 = trunc i64 %26 to i32
  ret i32 %27
}